; Function Attrs: mustprogress uwtable
define hidden void @_ZNK4cvc58internal20FloatingPointLiteral3fmaERKNS0_12RoundingModeERKS1_S6_(ptr dead_on_unwind noalias writable sret(%"class.cvc5::internal::FloatingPointLiteral") align 8 %0, ptr noundef nonnull align 8 dereferenceable(64) %1, ptr noundef nonnull align 4 dereferenceable(4) %2, ptr noundef nonnull align 8 dereferenceable(64) %3, ptr noundef nonnull align 8 dereferenceable(64) %4) local_unnamed_addr #4 align 2 personality ptr @__gxx_personality_v0 {
  %6 = alloca %"class.symfpu::unpackedFloat", align 8
  %7 = getelementptr inbounds nuw i8, ptr %1, i64 8
  %8 = getelementptr inbounds nuw i8, ptr %3, i64 8
  %9 = getelementptr inbounds nuw i8, ptr %4, i64 8
  call void @_ZN6symfpu3fmaIN4cvc58internal13symfpuLiteral6traitsEEENS_13unpackedFloatIT_EERKNS6_3fptERKNS6_2rmERKS7_SF_SF_(ptr dead_on_unwind nonnull writable sret(%"class.symfpu::unpackedFloat") align 8 %6, ptr noundef nonnull align 4 dereferenceable(8) %1, ptr noundef nonnull align 4 dereferenceable(4) %2, ptr noundef nonnull align 8 dereferenceable(56) %7, ptr noundef nonnull align 8 dereferenceable(56) %8, ptr noundef nonnull align 8 dereferenceable(56) %9)
  invoke void @_ZN4cvc58internal17FloatingPointSizeC1ERKS1_(ptr noundef nonnull align 8 dereferenceable(64) %0, ptr noundef nonnull align 4 dereferenceable(8) %1)
          to label %.noexc unwind label %42

.noexc:                                           ; preds = %5
  %10 = getelementptr inbounds nuw i8, ptr %0, i64 8
  %11 = load i8, ptr %6, align 8, !tbaa !15, !range !21, !noundef !22
  store i8 %11, ptr %10, align 8, !tbaa !15
  %12 = getelementptr inbounds nuw i8, ptr %0, i64 9
  %13 = getelementptr inbounds nuw i8, ptr %6, i64 1
  %14 = load i8, ptr %13, align 1, !tbaa !19, !range !21, !noundef !22
  store i8 %14, ptr %12, align 1, !tbaa !19
  %15 = getelementptr inbounds nuw i8, ptr %0, i64 10
  %16 = getelementptr inbounds nuw i8, ptr %6, i64 2
  %17 = load i8, ptr %16, align 2, !tbaa !20, !range !21, !noundef !22
  store i8 %17, ptr %15, align 2, !tbaa !20
  %18 = getelementptr inbounds nuw i8, ptr %0, i64 11
  %19 = getelementptr inbounds nuw i8, ptr %6, i64 3
  %20 = load i8, ptr %19, align 1, !tbaa !23, !range !21, !noundef !22
  store i8 %20, ptr %18, align 1, !tbaa !23
  %21 = getelementptr inbounds nuw i8, ptr %0, i64 16
  %22 = getelementptr inbounds nuw i8, ptr %6, i64 8
  %23 = load i32, ptr %22, align 8, !tbaa !9
  store i32 %23, ptr %21, align 8, !tbaa !9
  %24 = getelementptr inbounds nuw i8, ptr %0, i64 24
  %25 = getelementptr inbounds nuw i8, ptr %6, i64 16
  invoke void @__gmpz_init_set(ptr noundef nonnull align 8 dereferenceable(16) %24, ptr noundef nonnull align 8 dereferenceable(16) %25)
          to label %.noexc5 unwind label %42

.noexc5:                                          ; preds = %.noexc
  %26 = getelementptr inbounds nuw i8, ptr %0, i64 40
  %27 = getelementptr inbounds nuw i8, ptr %6, i64 32
  %28 = load i32, ptr %27, align 8, !tbaa !9
  store i32 %28, ptr %26, align 8, !tbaa !9
  %29 = getelementptr inbounds nuw i8, ptr %0, i64 48
  %30 = getelementptr inbounds nuw i8, ptr %6, i64 40
  invoke void @__gmpz_init_set(ptr noundef nonnull align 8 dereferenceable(16) %29, ptr noundef nonnull align 8 dereferenceable(16) %30)
          to label %_ZN4cvc58internal20FloatingPointLiteralC2ERKNS0_17FloatingPointSizeEN6symfpu13unpackedFloatINS0_13symfpuLiteral6traitsEEE.exit unwind label %31

31:                                               ; preds = %.noexc5
  %32 = landingpad { ptr, i32 }
          cleanup
  invoke void @__gmpz_clear(ptr noundef nonnull align 8 dereferenceable(16) %24)
          to label %.body unwind label %33

33:                                               ; preds = %31
  %34 = landingpad { ptr, i32 }
          catch ptr null
  %35 = extractvalue { ptr, i32 } %34, 0
  call void @__clang_call_terminate(ptr %35) #17
  unreachable

_ZN4cvc58internal20FloatingPointLiteralC2ERKNS0_17FloatingPointSizeEN6symfpu13unpackedFloatINS0_13symfpuLiteral6traitsEEE.exit: ; preds = %.noexc5
  invoke void @__gmpz_clear(ptr noundef nonnull align 8 dereferenceable(16) %30)
          to label %_ZN4cvc58internal9BitVectorD2Ev.exit.i unwind label %36

36:                                               ; preds = %_ZN4cvc58internal20FloatingPointLiteralC2ERKNS0_17FloatingPointSizeEN6symfpu13unpackedFloatINS0_13symfpuLiteral6traitsEEE.exit
  %37 = landingpad { ptr, i32 }
          catch ptr null
  %38 = extractvalue { ptr, i32 } %37, 0
  call void @__clang_call_terminate(ptr %38) #17
  unreachable

_ZN4cvc58internal9BitVectorD2Ev.exit.i:           ; preds = %_ZN4cvc58internal20FloatingPointLiteralC2ERKNS0_17FloatingPointSizeEN6symfpu13unpackedFloatINS0_13symfpuLiteral6traitsEEE.exit
  invoke void @__gmpz_clear(ptr noundef nonnull align 8 dereferenceable(16) %25)
          to label %_ZN6symfpu13unpackedFloatIN4cvc58internal13symfpuLiteral6traitsEED2Ev.exit unwind label %39

39:                                               ; preds = %_ZN4cvc58internal9BitVectorD2Ev.exit.i
  %40 = landingpad { ptr, i32 }
          catch ptr null
  %41 = extractvalue { ptr, i32 } %40, 0
  call void @__clang_call_terminate(ptr %41) #17
  unreachable

_ZN6symfpu13unpackedFloatIN4cvc58internal13symfpuLiteral6traitsEED2Ev.exit: ; preds = %_ZN4cvc58internal9BitVectorD2Ev.exit.i
  ret void

42:                                               ; preds = %.noexc, %5
  %43 = landingpad { ptr, i32 }
          cleanup
  br label %.body

.body:                                            ; preds = %31, %42
  %eh.lpad-body = phi { ptr, i32 } [ %43, %42 ], [ %32, %31 ]
  call void @_ZN6symfpu13unpackedFloatIN4cvc58internal13symfpuLiteral6traitsEED2Ev(ptr noundef nonnull align 8 dereferenceable(56) %6) #16
  resume { ptr, i32 } %eh.lpad-body
}